Certificate:
    Data:
        Version: 3 (0x2)
        Serial Number: 4104 (0x1008)
    Signature Algorithm: sha256WithRSAEncryption
        Issuer: C=FR, O=DIRAC, CN=DIRAC Certification Authority
        Validity
            Not Before: May  7 10:31:05 2019 GMT
            Not After : May 16 10:31:05 2020 GMT
        Subject: C=FR, O=DIRAC, OU=DIRAC Consortium, CN=marc.in2p3.fr/emailAddress=diracadmin@diracgrid.org
        Subject Public Key Info:
            Public Key Algorithm: rsaEncryption
                Public-Key: (2048 bit)
                Modulus:
                    00:d7:30:84:83:c3:36:77:d9:9a:a8:91:d9:b3:cd:
                    5b:97:c2:f0:4a:c9:ac:74:be:7b:49:ae:f7:82:b4:
                    0e:39:f9:7c:44:6b:1b:c8:a0:a4:78:20:4c:c7:44:
                    86:ec:b0:43:69:d1:e7:8b:fb:43:ff:50:c5:ed:c5:
                    ed:af:82:70:f2:e1:fc:ae:38:72:3e:85:89:0d:4b:
                    0d:78:11:c4:2f:f9:51:81:ab:0d:84:90:d7:02:b7:
                    b9:cd:88:bb:e7:83:11:8f:25:35:49:fe:1b:b8:98:
                    67:90:54:c0:64:94:2a:d7:91:74:72:ee:4e:3b:e3:
                    02:2e:51:3a:fc:6d:21:17:59:ad:f2:58:3e:15:82:
                    da:af:b7:01:cb:a4:30:7f:4c:5d:ff:79:8e:02:d9:
                    01:ae:67:d8:02:6f:40:0f:35:f5:ca:89:b1:d9:e4:
                    5c:47:ee:20:dc:90:cf:a5:22:6e:85:97:e5:bc:75:
                    70:43:f7:9a:90:20:60:9b:8b:d3:8e:a8:67:00:08:
                    fe:3c:23:2a:d2:aa:ee:16:13:cc:be:11:9d:d1:8f:
                    22:e8:f6:7e:db:a0:d0:20:34:b5:db:32:f7:a8:5f:
                    46:ef:f6:a3:6e:c6:2e:3d:9a:25:f6:aa:89:95:25:
                    30:12:a2:1d:85:8d:ec:bb:84:cd:c9:ce:6a:c5:a0:
                    9c:73
                Exponent: 65537 (0x10001)
        X509v3 extensions:
            X509v3 Basic Constraints: 
                CA:FALSE
            Netscape Comment: 
                OpenSSL Generated Server Certificate
            X509v3 Subject Key Identifier: 
                3A:E0:7F:B3:9D:56:4E:1F:67:EF:08:5F:93:1E:50:91:E1:60:25:C1
            X509v3 Authority Key Identifier: 
                keyid:94:C2:96:42:0E:20:F3:5F:3E:B3:2B:69:D5:AE:5A:2E:28:5C:60:28
                DirName:/C=FR/O=DIRAC/CN=DIRAC Certification Authority
                serial:84:B8:24:3B:7F:FF:8A:21

            X509v3 Key Usage: critical
                Digital Signature, Key Encipherment
            X509v3 Extended Key Usage: 
                TLS Web Server Authentication, TLS Web Client Authentication
            X509v3 Subject Alternative Name: 
                DNS:marc.in2p3.fr, DNS:localhost
    Signature Algorithm: sha256WithRSAEncryption
         8f:5a:46:4c:e7:3b:77:57:2e:77:ef:3e:0a:c3:08:14:6d:32:
         1f:4a:b1:0e:8f:8a:0e:c2:73:7e:8f:42:69:5b:64:09:75:56:
         5a:8e:aa:cb:41:4b:23:4c:d3:c5:e7:fb:5e:08:8e:5c:b4:d3:
         25:74:47:74:b2:e8:a0:12:2c:63:2e:79:5b:a5:e2:12:77:4d:
         68:c5:7b:92:ab:c7:a2:ef:62:1d:1b:ec:27:57:ba:1b:d9:6f:
         02:1d:41:4b:37:4a:ac:00:6d:ed:81:3d:8a:ee:b8:cb:d6:11:
         46:86:61:8a:2c:14:99:2c:81:e1:82:f9:db:e5:b8:a0:89:f4:
         bc:e4:55:e4:40:74:2e:31:e9:c4:d3:dc:b5:27:ca:76:ce:af:
         80:b4:24:b4:bd:8b:4d:87:39:0e:5c:5e:9b:e9:5b:f7:46:14:
         f9:16:88:2d:e8:68:99:cb:57:70:98:5a:d5:f1:0b:fe:85:4d:
         5e:04:54:3e:d0:48:4b:dc:f7:37:eb:cd:d9:d0:92:e5:55:51:
         07:67:eb:89:6c:00:dd:f7:a1:4d:e3:75:05:55:a3:5e:86:a2:
         44:df:0f:9a:3b:3b:19:d9:e5:51:a4:55:05:24:9a:a3:5d:5e:
         42:34:fd:85:e8:0a:2b:17:a7:3d:e4:a6:a1:97:98:22:44:a1:
         8d:82:bb:6f
-----BEGIN CERTIFICATE-----
MIIEajCCA1KgAwIBAgICEAgwDQYJKoZIhvcNAQELBQAwRTELMAkGA1UEBhMCRlIx
DjAMBgNVBAoMBURJUkFDMSYwJAYDVQQDDB1ESVJBQyBDZXJ0aWZpY2F0aW9uIEF1
dGhvcml0eTAeFw0xOTA1MDcxMDMxMDVaFw0yMDA1MTYxMDMxMDVaMHkxCzAJBgNV
BAYTAkZSMQ4wDAYDVQQKDAVESVJBQzEZMBcGA1UECwwQRElSQUMgQ29uc29ydGl1
bTEWMBQGA1UEAwwNbWFyYy5pbjJwMy5mcjEnMCUGCSqGSIb3DQEJARYYZGlyYWNh
ZG1pbkBkaXJhY2dyaWQub3JnMIIBIjANBgkqhkiG9w0BAQEFAAOCAQ8AMIIBCgKC
AQEA1zCEg8M2d9maqJHZs81bl8LwSsmsdL57Sa73grQOOfl8RGsbyKCkeCBMx0SG
7LBDadHni/tD/1DF7cXtr4Jw8uH8rjhyPoWJDUsNeBHEL/lRgasNhJDXAre5zYi7
54MRjyU1Sf4buJhnkFTAZJQq15F0cu5OO+MCLlE6/G0hF1mt8lg+FYLar7cBy6Qw
f0xd/3mOAtkBrmfYAm9ADzX1yomx2eRcR+4g3JDPpSJuhZflvHVwQ/eakCBgm4vT
jqhnAAj+PCMq0qruFhPMvhGd0Y8i6PZ+26DQIDS12zL3qF9G7/ajbsYuPZol9qqJ
lSUwEqIdhY3su4TNyc5qxaCccwIDAQABo4IBLjCCASowCQYDVR0TBAIwADAzBglg
hkgBhvhCAQ0EJhYkT3BlblNTTCBHZW5lcmF0ZWQgU2VydmVyIENlcnRpZmljYXRl
MB0GA1UdDgQWBBQ64H+znVZOH2fvCF+THlCR4WAlwTB1BgNVHSMEbjBsgBSUwpZC
DiDzXz6zK2nVrlouKFxgKKFJpEcwRTELMAkGA1UEBhMCRlIxDjAMBgNVBAoMBURJ
UkFDMSYwJAYDVQQDDB1ESVJBQyBDZXJ0aWZpY2F0aW9uIEF1dGhvcml0eYIJAIS4
JDt//4ohMA4GA1UdDwEB/wQEAwIFoDAdBgNVHSUEFjAUBggrBgEFBQcDAQYIKwYB
BQUHAwIwIwYDVR0RBBwwGoINbWFyYy5pbjJwMy5mcoIJbG9jYWxob3N0MA0GCSqG
SIb3DQEBCwUAA4IBAQCPWkZM5zt3Vy537z4KwwgUbTIfSrEOj4oOwnN+j0JpW2QJ
dVZajqrLQUsjTNPF5/teCI5ctNMldEd0suigEixjLnlbpeISd01oxXuSq8ei72Id
G+wnV7ob2W8CHUFLN0qsAG3tgT2K7rjL1hFGhmGKLBSZLIHhgvnb5bigifS85FXk
QHQuMenE09y1J8p2zq+AtCS0vYtNhzkOXF6b6Vv3RhT5Fogt6GiZy1dwmFrV8Qv+
hU1eBFQ+0EhL3Pc3683Z0JLlVVEHZ+uJbADd96FN43UFVaNehqJE3w+aOzsZ2eVR
pFUFJJqjXV5CNP2F6AorF6c95Kahl5giRKGNgrtv
-----END CERTIFICATE-----
